; Function Attrs: cold nounwind optsize uwtable
define internal range(i32 -1094995529, 1) i32 @srt_encode_init(ptr noundef %0) #0 {
  %2 = getelementptr inbounds nuw i8, ptr %0, i64 32
  %3 = load ptr, ptr %2, align 8, !tbaa !4
  store ptr %0, ptr %3, align 8, !tbaa !27
  %4 = getelementptr inbounds nuw i8, ptr %0, i64 752
  %5 = load ptr, ptr %4, align 8, !tbaa !32
  %6 = tail call ptr @ff_ass_split(ptr noundef %5) #8
  %7 = getelementptr inbounds nuw i8, ptr %3, i64 8
  store ptr %6, ptr %7, align 8, !tbaa !33
  %.not = icmp eq ptr %6, null
  %8 = select i1 %.not, i32 -1094995529, i32 0
  ret i32 %8
}